; Function Attrs: nounwind uwtable
define dso_local void @ExecEndMaterial(ptr noundef captures(none) %0) local_unnamed_addr #0 {
  %2 = getelementptr inbounds nuw i8, ptr %0, i64 232
  %3 = load ptr, ptr %2, align 8
  %.not = icmp eq ptr %3, null
  br i1 %.not, label %5, label %4

4:                                                ; preds = %1
  tail call void @tuplestore_end(ptr noundef nonnull %3) #2
  br label %5

5:                                                ; preds = %4, %1
  store ptr null, ptr %2, align 8
  %6 = getelementptr inbounds nuw i8, ptr %0, i64 72
  %7 = load ptr, ptr %6, align 8
  tail call void @ExecEndNode(ptr noundef %7) #2
  ret void
}